(lp0
F0.376925323602
aF0.376926142725
aF0.376824848796
aF0.376824849359
aF0.376824849936
aF0.376824846799
aF0.376824849912
aF0.376824849818
aF0.376824851323
aF0.376824847036
aF0.376824850141
aF0.37682485015
aF0.376824849837
aF0.376824848486
aF0.376824850939
aF0.376824849777
aF0.376824848583
aF0.376824851013
aF0.376824847929
aF0.376824850361
aF0.376824844141
aF0.376824846073
aF0.376824849609
aF0.376824846073
aF0.376824849712
aF0.376824843422
aF0.376824847816
aF0.376824847321
aF0.376824851357
aF0.376824847321
aF0.376824849194
aF0.376824851357
aF0.376824847013
aF0.376824844769
aF0.376824849194
aF0.376824847321
aF0.376824849194
aF0.376824847816
aF0.376824847816
aF0.376824849712
aF0.376824850679
aF0.376824847816
aF0.376824847321
aF0.376824849943
aF0.376824849712
aF0.376831912727
aF0.37682691435
aF0.37682700447
aF0.37683864184
aF0.376828933442
aF0.376924368356
aF0.376884360123
aF0.376967728705
aF0.376882065935
aF0.376925838618
aF0.376885049778
aF0.376968909866
aF0.376892921295
aF0.376828608228
aF0.3776367539
aF0.377621846053
aF0.376843751568
aF0.376832190814
aF0.376879831234
aF0.376847576923
aF0.376836397633
aF0.376855071345
aF0.376858082344
aF0.376853881885
aF0.376857427152
aF0.376826291225
aF0.377157789495
aF0.37711597215
aF0.377115163601
aF0.377116032369
aF0.377116804638
aF0.379416335495
aF0.376825151727
aF0.377163629564
aF0.376827367145
aF0.376824851268
aF0.376824851283
aF0.376824849304
aF0.376824849005
aF0.376824849402
aF0.376824849773
aF0.376824848821
aF0.376824849773
aF0.376824848821
aF0.376824849773
a.