(lp0
F0.188412425342
aF0.37762464015
aF0.37763132606
aF0.376824851462
aF0.376824849961
aF0.376824848744
aF0.376824851066
aF0.376824851158
aF0.376824848834
aF0.376824850499
aF0.376824848584
aF0.376824848441
aF0.376824851312
aF0.376824846595
aF0.376824851321
aF0.376824849131
aF0.376824847809
aF0.376824850738
aF0.376824850064
aF0.376824850406
aF0.376824850807
aF0.376824845319
aF0.376824849974
aF0.376824851343
aF0.376824849974
aF0.376824851221
aF0.376824851048
aF0.376824851349
aF0.376824846495
aF0.376824846712
aF0.376824846495
aF0.376824850746
aF0.376824846712
aF0.376824850562
aF0.37682485065
aF0.376824850746
aF0.376824846495
aF0.376824850746
aF0.376824851349
aF0.376824851349
aF0.376824851221
aF0.376824846106
aF0.376824851349
aF0.376824846495
aF0.376824851461
aF0.376824851221
aF0.376879736692
aF0.376840878239
aF0.376841565423
aF0.376932219318
aF0.376856557095
aF0.377616835845
aF0.377293665476
aF0.377974744611
aF0.377275251672
aF0.377270551051
aF0.377262200076
aF0.377255180682
aF0.377122280728
aF0.376828607503
aF0.38474419501
aF0.377719139655
aF0.376843751656
aF0.376832190695
aF0.376879827025
aF0.376847576515
aF0.376836397153
aF0.376855070939
aF0.376858077484
aF0.376853879573
aF0.376857429782
aF0.376836036513
aF0.377157787626
aF0.379148021239
aF0.379140847187
aF0.378073099582
aF0.378076761086
aF0.394333459102
aF0.37682515121
aF0.377163629903
aF0.376827368862
aF0.376824845655
aF0.37682485086
aF0.376824851159
aF0.376824851336
aF0.376824849519
aF0.376824849338
aF0.376824850246
aF0.376824849338
aF0.376824850246
aF0.376824849338
a.