(lp0
F0.188412425342
aF0.377607712738
aF0.377614207818
aF0.376824849541
aF0.376824850206
aF0.376824850639
aF0.376824846916
aF0.37682485031
aF0.376824849693
aF0.37682485068
aF0.376824846945
aF0.376824849914
aF0.376824848747
aF0.376824849837
aF0.37682484487
aF0.376824843457
aF0.376824850591
aF0.376824847927
aF0.37682484996
aF0.376824848704
aF0.376824849033
aF0.376824848708
aF0.376824851212
aF0.376824850268
aF0.376824851212
aF0.376824849161
aF0.376824847802
aF0.376824844389
aF0.376824845295
aF0.376824847976
aF0.376824845295
aF0.376824849409
aF0.376824847976
aF0.3768248513
aF0.376824850172
aF0.376824849409
aF0.376824845295
aF0.376824849409
aF0.376824844389
aF0.376824844389
aF0.376824849161
aF0.376824847468
aF0.376824844389
aF0.376824845295
aF0.37682484791
aF0.376824849161
aF0.376878903107
aF0.376840638523
aF0.376841313309
aF0.37693053902
aF0.376856076781
aF0.377600119402
aF0.377284969794
aF0.3779472304
aF0.377266961113
aF0.377270550991
aF0.377262201827
aF0.377255181849
aF0.377122279058
aF0.376828607118
aF0.384155554902
aF0.377719138944
aF0.376843750837
aF0.376832190557
aF0.376879830104
aF0.376847578872
aF0.376836399105
aF0.376855069974
aF0.376858078751
aF0.376853884277
aF0.376857428244
aF0.376835865666
aF0.377157789901
aF0.379148013903
aF0.379140848569
aF0.378073095778
aF0.378076761692
aF0.394333456547
aF0.376825147825
aF0.377163626866
aF0.376827365979
aF0.376824851658
aF0.376824851102
aF0.376824850865
aF0.376824851543
aF0.37682484856
aF0.376824851212
aF0.376824851237
aF0.376824851212
aF0.376824851237
aF0.376824851212
a.